; Function Attrs: nounwind uwtable
define dso_local void @pgstat_count_heap_insert(ptr noundef %0, i64 noundef %1) local_unnamed_addr #0 {
  %3 = getelementptr inbounds nuw i8, ptr %0, i64 480
  %4 = load ptr, ptr %3, align 8
  %.not = icmp eq ptr %4, null
  br i1 %.not, label %5, label %10, !prof !6

5:                                                ; preds = %2
  %6 = getelementptr inbounds nuw i8, ptr %0, i64 476
  %7 = load i8, ptr %6, align 4, !range !4, !noundef !5
  %8 = trunc nuw i8 %7 to i1
  br i1 %8, label %9, label %33

9:                                                ; preds = %5
  tail call void @pgstat_assoc_relation(ptr noundef nonnull %0)
  %.pre = load ptr, ptr %3, align 8
  br label %10

10:                                               ; preds = %2, %9
  %11 = phi ptr [ %4, %2 ], [ %.pre, %9 ]
  %12 = tail call i32 @GetCurrentTransactionNestLevel() #9
  %13 = getelementptr inbounds nuw i8, ptr %11, i64 8
  %14 = load ptr, ptr %13, align 8
  %15 = icmp eq ptr %14, null
  br i1 %15, label %19, label %16

16:                                               ; preds = %10
  %17 = getelementptr inbounds nuw i8, ptr %14, i64 56
  %18 = load i32, ptr %17, align 8
  %.not.i = icmp eq i32 %18, %12
  br i1 %.not.i, label %ensure_tabstat_xact_level.exit, label %19

19:                                               ; preds = %16, %10
  %20 = tail call ptr @pgstat_get_xact_stack_level(i32 noundef %12) #9
  %21 = load ptr, ptr @TopTransactionContext, align 8
  %22 = tail call ptr @MemoryContextAllocZero(ptr noundef %21, i64 noundef 88) #9
  %23 = getelementptr inbounds nuw i8, ptr %22, i64 56
  store i32 %12, ptr %23, align 8
  %24 = load ptr, ptr %13, align 8
  %25 = getelementptr inbounds nuw i8, ptr %22, i64 64
  store ptr %24, ptr %25, align 8
  %26 = getelementptr inbounds nuw i8, ptr %22, i64 72
  store ptr %11, ptr %26, align 8
  %27 = getelementptr inbounds nuw i8, ptr %20, i64 40
  %28 = load ptr, ptr %27, align 8
  %29 = getelementptr inbounds nuw i8, ptr %22, i64 80
  store ptr %28, ptr %29, align 8
  store ptr %22, ptr %27, align 8
  store ptr %22, ptr %13, align 8
  br label %ensure_tabstat_xact_level.exit

ensure_tabstat_xact_level.exit:                   ; preds = %16, %19
  %30 = phi ptr [ %14, %16 ], [ %22, %19 ]
  %31 = load i64, ptr %30, align 8
  %32 = add i64 %31, %1
  store i64 %32, ptr %30, align 8
  br label %33

33:                                               ; preds = %5, %ensure_tabstat_xact_level.exit
  ret void
}